target datalayout = "e-m:e-p270:32:32-p271:32:32-p272:64:64-i64:64-i128:128-f80:128-n8:16:32:64-S128"
target triple = "x86_64-pc-linux-gnu"

%class.b3QuantizedBvh = type <{ ptr, [8 x i8], %class.b3Vector3, %class.b3Vector3, %class.b3Vector3, i32, i32, i8, [7 x i8], %class.b3AlignedObjectArray, %class.b3AlignedObjectArray, %class.b3AlignedObjectArray.0, %class.b3AlignedObjectArray.0, i32, [4 x i8], %class.b3AlignedObjectArray.2, i32, [4 x i8] }>
%class.b3Vector3 = type { %union.anon }
%union.anon = type { [4 x float] }
%class.b3AlignedObjectArray = type <{ [4 x i8], i32, i32, [4 x i8], ptr, i8, [7 x i8] }>
%class.b3AlignedObjectArray.0 = type <{ [4 x i8], i32, i32, [4 x i8], ptr, i8, [7 x i8] }>
%class.b3AlignedObjectArray.2 = type <{ [4 x i8], i32, i32, [4 x i8], ptr, i8, [7 x i8] }>
%struct.b3QuantizedBvhNode = type { %struct.b3QuantizedBvhNodeData }
%struct.b3QuantizedBvhNodeData = type { [3 x i16], [3 x i16], i32 }

@_ZL17b3s_maxIterations = internal global i32 0, align 4

; Function Attrs: inlinehint mustprogress nounwind uwtable
define linkonce_odr dso_local noundef i32 @_Z8b3Selectjii(i32 noundef %0, i32 noundef %1, i32 noundef %2) #1 comdat {
  %4 = alloca i32, align 4
  %5 = alloca i32, align 4
  %6 = alloca i32, align 4
  %7 = alloca i32, align 4
  %8 = alloca i32, align 4
  store i32 %0, ptr %4, align 4, !tbaa !42
  store i32 %1, ptr %5, align 4, !tbaa !42
  store i32 %2, ptr %6, align 4, !tbaa !42
  call void @llvm.lifetime.start.p0(i64 4, ptr %7) #14
  %9 = load i32, ptr %4, align 4, !tbaa !42
  %10 = load i32, ptr %4, align 4, !tbaa !42
  %11 = sub nsw i32 0, %10
  %12 = or i32 %9, %11
  %13 = ashr i32 %12, 31
  store i32 %13, ptr %7, align 4, !tbaa !42
  call void @llvm.lifetime.start.p0(i64 4, ptr %8) #14
  %14 = load i32, ptr %7, align 4, !tbaa !42
  %15 = xor i32 %14, -1
  store i32 %15, ptr %8, align 4, !tbaa !42
  %16 = load i32, ptr %5, align 4, !tbaa !42
  %17 = load i32, ptr %7, align 4, !tbaa !42
  %18 = and i32 %16, %17
  %19 = load i32, ptr %6, align 4, !tbaa !42
  %20 = load i32, ptr %8, align 4, !tbaa !42
  %21 = and i32 %19, %20
  %22 = or i32 %18, %21
  call void @llvm.lifetime.end.p0(i64 4, ptr %8) #14
  call void @llvm.lifetime.end.p0(i64 4, ptr %7) #14
  ret i32 %22
}

; Function Attrs: mustprogress nounwind uwtable
define linkonce_odr dso_local noundef i32 @_ZNK18b3QuantizedBvhNode14getEscapeIndexEv(ptr noundef nonnull align 16 dereferenceable(16) %0) #3 comdat align 2 {
  %2 = alloca ptr, align 8
  store ptr %0, ptr %2, align 8, !tbaa !51
  %3 = load ptr, ptr %2, align 8
  %4 = getelementptr inbounds nuw %struct.b3QuantizedBvhNodeData, ptr %3, i32 0, i32 2
  %5 = load i32, ptr %4, align 4, !tbaa !61
  %6 = sub nsw i32 0, %5
  ret i32 %6
}

; Function Attrs: mustprogress nounwind uwtable
define linkonce_odr dso_local noundef i32 @_ZNK18b3QuantizedBvhNode16getTriangleIndexEv(ptr noundef nonnull align 16 dereferenceable(16) %0) #3 comdat align 2 {
  %2 = alloca ptr, align 8
  %3 = alloca i32, align 4
  %4 = alloca i32, align 4
  store ptr %0, ptr %2, align 8, !tbaa !51
  %5 = load ptr, ptr %2, align 8
  call void @llvm.lifetime.start.p0(i64 4, ptr %3) #14
  store i32 0, ptr %3, align 4, !tbaa !42
  call void @llvm.lifetime.start.p0(i64 4, ptr %4) #14
  %6 = load i32, ptr %3, align 4, !tbaa !42
  %7 = and i32 %6, 0
  %8 = xor i32 %7, -1
  %9 = shl i32 %8, 21
  store i32 %9, ptr %4, align 4, !tbaa !42
  %10 = getelementptr inbounds nuw %struct.b3QuantizedBvhNodeData, ptr %5, i32 0, i32 2
  %11 = load i32, ptr %10, align 4, !tbaa !61
  %12 = load i32, ptr %4, align 4, !tbaa !42
  %13 = xor i32 %12, -1
  %14 = and i32 %11, %13
  call void @llvm.lifetime.end.p0(i64 4, ptr %4) #14
  call void @llvm.lifetime.end.p0(i64 4, ptr %3) #14
  ret i32 %14
}

; Function Attrs: mustprogress nounwind uwtable
define linkonce_odr dso_local noundef i32 @_ZNK18b3QuantizedBvhNode9getPartIdEv(ptr noundef nonnull align 16 dereferenceable(16) %0) #3 comdat align 2 {
  %2 = alloca ptr, align 8
  store ptr %0, ptr %2, align 8, !tbaa !51
  %3 = load ptr, ptr %2, align 8
  %4 = getelementptr inbounds nuw %struct.b3QuantizedBvhNodeData, ptr %3, i32 0, i32 2
  %5 = load i32, ptr %4, align 4, !tbaa !61
  %6 = ashr i32 %5, 21
  ret i32 %6
}

; Function Attrs: mustprogress nounwind uwtable
define linkonce_odr dso_local noundef zeroext i1 @_ZNK18b3QuantizedBvhNode10isLeafNodeEv(ptr noundef nonnull align 16 dereferenceable(16) %0) #3 comdat align 2 {
  %2 = alloca ptr, align 8
  store ptr %0, ptr %2, align 8, !tbaa !51
  %3 = load ptr, ptr %2, align 8
  %4 = getelementptr inbounds nuw %struct.b3QuantizedBvhNodeData, ptr %3, i32 0, i32 2
  %5 = load i32, ptr %4, align 4, !tbaa !61
  %6 = icmp sge i32 %5, 0
  ret i1 %6
}

; Function Attrs: inlinehint mustprogress uwtable
define linkonce_odr dso_local noundef i32 @_Z39b3TestQuantizedAabbAgainstQuantizedAabbPKtS0_S0_S0_(ptr noundef %0, ptr noundef %1, ptr noundef %2, ptr noundef %3) #4 comdat {
  %5 = alloca ptr, align 8
  %6 = alloca ptr, align 8
  %7 = alloca ptr, align 8
  %8 = alloca ptr, align 8
  store ptr %0, ptr %5, align 8, !tbaa !76
  store ptr %1, ptr %6, align 8, !tbaa !76
  store ptr %2, ptr %7, align 8, !tbaa !76
  store ptr %3, ptr %8, align 8, !tbaa !76
  %9 = load ptr, ptr %5, align 8, !tbaa !76
  %10 = getelementptr inbounds i16, ptr %9, i64 0
  %11 = load i16, ptr %10, align 2, !tbaa !59
  %12 = zext i16 %11 to i32
  %13 = load ptr, ptr %8, align 8, !tbaa !76
  %14 = getelementptr inbounds i16, ptr %13, i64 0
  %15 = load i16, ptr %14, align 2, !tbaa !59
  %16 = zext i16 %15 to i32
  %17 = icmp sle i32 %12, %16
  %18 = zext i1 %17 to i32
  %19 = load ptr, ptr %6, align 8, !tbaa !76
  %20 = getelementptr inbounds i16, ptr %19, i64 0
  %21 = load i16, ptr %20, align 2, !tbaa !59
  %22 = zext i16 %21 to i32
  %23 = load ptr, ptr %7, align 8, !tbaa !76
  %24 = getelementptr inbounds i16, ptr %23, i64 0
  %25 = load i16, ptr %24, align 2, !tbaa !59
  %26 = zext i16 %25 to i32
  %27 = icmp sge i32 %22, %26
  %28 = zext i1 %27 to i32
  %29 = and i32 %18, %28
  %30 = load ptr, ptr %5, align 8, !tbaa !76
  %31 = getelementptr inbounds i16, ptr %30, i64 2
  %32 = load i16, ptr %31, align 2, !tbaa !59
  %33 = zext i16 %32 to i32
  %34 = load ptr, ptr %8, align 8, !tbaa !76
  %35 = getelementptr inbounds i16, ptr %34, i64 2
  %36 = load i16, ptr %35, align 2, !tbaa !59
  %37 = zext i16 %36 to i32
  %38 = icmp sle i32 %33, %37
  %39 = zext i1 %38 to i32
  %40 = and i32 %29, %39
  %41 = load ptr, ptr %6, align 8, !tbaa !76
  %42 = getelementptr inbounds i16, ptr %41, i64 2
  %43 = load i16, ptr %42, align 2, !tbaa !59
  %44 = zext i16 %43 to i32
  %45 = load ptr, ptr %7, align 8, !tbaa !76
  %46 = getelementptr inbounds i16, ptr %45, i64 2
  %47 = load i16, ptr %46, align 2, !tbaa !59
  %48 = zext i16 %47 to i32
  %49 = icmp sge i32 %44, %48
  %50 = zext i1 %49 to i32
  %51 = and i32 %40, %50
  %52 = load ptr, ptr %5, align 8, !tbaa !76
  %53 = getelementptr inbounds i16, ptr %52, i64 1
  %54 = load i16, ptr %53, align 2, !tbaa !59
  %55 = zext i16 %54 to i32
  %56 = load ptr, ptr %8, align 8, !tbaa !76
  %57 = getelementptr inbounds i16, ptr %56, i64 1
  %58 = load i16, ptr %57, align 2, !tbaa !59
  %59 = zext i16 %58 to i32
  %60 = icmp sle i32 %55, %59
  %61 = zext i1 %60 to i32
  %62 = and i32 %51, %61
  %63 = load ptr, ptr %6, align 8, !tbaa !76
  %64 = getelementptr inbounds i16, ptr %63, i64 1
  %65 = load i16, ptr %64, align 2, !tbaa !59
  %66 = zext i16 %65 to i32
  %67 = load ptr, ptr %7, align 8, !tbaa !76
  %68 = getelementptr inbounds i16, ptr %67, i64 1
  %69 = load i16, ptr %68, align 2, !tbaa !59
  %70 = zext i16 %69 to i32
  %71 = icmp sge i32 %66, %70
  %72 = zext i1 %71 to i32
  %73 = and i32 %62, %72
  %74 = call noundef i32 @_Z8b3Selectjii(i32 noundef %73, i32 noundef 1, i32 noundef 0)
  ret i32 %74
}

; Function Attrs: inlinehint mustprogress nounwind uwtable
define linkonce_odr dso_local noundef nonnull align 16 dereferenceable(16) ptr @_ZNK20b3AlignedObjectArrayI18b3QuantizedBvhNodeEixEi(ptr noundef nonnull align 8 dereferenceable(25) %0, i32 noundef %1) #1 comdat align 2 {
  %3 = alloca ptr, align 8
  %4 = alloca i32, align 4
  store ptr %0, ptr %3, align 8, !tbaa !33
  store i32 %1, ptr %4, align 4, !tbaa !42
  %5 = load ptr, ptr %3, align 8
  %6 = getelementptr inbounds nuw %class.b3AlignedObjectArray.0, ptr %5, i32 0, i32 4
  %7 = load ptr, ptr %6, align 8, !tbaa !54
  %8 = load i32, ptr %4, align 4, !tbaa !42
  %9 = sext i32 %8 to i64
  %10 = getelementptr inbounds %struct.b3QuantizedBvhNode, ptr %7, i64 %9
  ret ptr %10
}

; Function Attrs: mustprogress uwtable
define dso_local void @_ZNK14b3QuantizedBvh26walkStacklessQuantizedTreeEP21b3NodeOverlapCallbackPtS2_ii(ptr noundef nonnull align 16 dereferenceable(252) %0, ptr noundef %1, ptr noundef %2, ptr noundef %3, i32 noundef %4, i32 noundef %5) #0 align 2 {
  %7 = alloca ptr, align 8
  %8 = alloca ptr, align 8
  %9 = alloca ptr, align 8
  %10 = alloca ptr, align 8
  %11 = alloca i32, align 4
  %12 = alloca i32, align 4
  %13 = alloca i32, align 4
  %14 = alloca i32, align 4
  %15 = alloca i32, align 4
  %16 = alloca ptr, align 8
  %17 = alloca i32, align 4
  %18 = alloca i8, align 1
  %19 = alloca i32, align 4
  store ptr %0, ptr %7, align 8, !tbaa !4
  store ptr %1, ptr %8, align 8, !tbaa !74
  store ptr %2, ptr %9, align 8, !tbaa !76
  store ptr %3, ptr %10, align 8, !tbaa !76
  store i32 %4, ptr %11, align 4, !tbaa !42
  store i32 %5, ptr %12, align 4, !tbaa !42
  %20 = load ptr, ptr %7, align 8
  call void @llvm.lifetime.start.p0(i64 4, ptr %13) #14
  %21 = load i32, ptr %11, align 4, !tbaa !42
  store i32 %21, ptr %13, align 4, !tbaa !42
  call void @llvm.lifetime.start.p0(i64 4, ptr %14) #14
  store i32 0, ptr %14, align 4, !tbaa !42
  call void @llvm.lifetime.start.p0(i64 4, ptr %15) #14
  %22 = load i32, ptr %12, align 4, !tbaa !42
  %23 = load i32, ptr %11, align 4, !tbaa !42
  %24 = sub nsw i32 %22, %23
  store i32 %24, ptr %15, align 4, !tbaa !42
  call void @llvm.lifetime.start.p0(i64 8, ptr %16) #14
  %25 = getelementptr inbounds nuw %class.b3QuantizedBvh, ptr %20, i32 0, i32 12
  %26 = load i32, ptr %11, align 4, !tbaa !42
  %27 = call noundef nonnull align 16 dereferenceable(16) ptr @_ZNK20b3AlignedObjectArrayI18b3QuantizedBvhNodeEixEi(ptr noundef nonnull align 8 dereferenceable(25) %25, i32 noundef %26)
  store ptr %27, ptr %16, align 8, !tbaa !51
  call void @llvm.lifetime.start.p0(i64 4, ptr %17) #14
  call void @llvm.lifetime.start.p0(i64 1, ptr %18) #14
  call void @llvm.lifetime.start.p0(i64 4, ptr %19) #14
  br label %28

28:                                               ; preds = %82, %6
  %29 = load i32, ptr %13, align 4, !tbaa !42
  %30 = load i32, ptr %12, align 4, !tbaa !42
  %31 = icmp slt i32 %29, %30
  br i1 %31, label %32, label %83

32:                                               ; preds = %28
  %33 = load i32, ptr %14, align 4, !tbaa !42
  %34 = add nsw i32 %33, 1
  store i32 %34, ptr %14, align 4, !tbaa !42
  %35 = load ptr, ptr %9, align 8, !tbaa !76
  %36 = load ptr, ptr %10, align 8, !tbaa !76
  %37 = load ptr, ptr %16, align 8, !tbaa !51
  %38 = getelementptr inbounds nuw %struct.b3QuantizedBvhNodeData, ptr %37, i32 0, i32 0
  %39 = getelementptr inbounds [3 x i16], ptr %38, i64 0, i64 0
  %40 = load ptr, ptr %16, align 8, !tbaa !51
  %41 = getelementptr inbounds nuw %struct.b3QuantizedBvhNodeData, ptr %40, i32 0, i32 1
  %42 = getelementptr inbounds [3 x i16], ptr %41, i64 0, i64 0
  %43 = call noundef i32 @_Z39b3TestQuantizedAabbAgainstQuantizedAabbPKtS0_S0_S0_(ptr noundef %35, ptr noundef %36, ptr noundef %39, ptr noundef %42)
  store i32 %43, ptr %19, align 4, !tbaa !42
  %44 = load ptr, ptr %16, align 8, !tbaa !51
  %45 = call noundef zeroext i1 @_ZNK18b3QuantizedBvhNode10isLeafNodeEv(ptr noundef nonnull align 16 dereferenceable(16) %44)
  %46 = zext i1 %45 to i8
  store i8 %46, ptr %18, align 1, !tbaa !70
  %47 = load i8, ptr %18, align 1, !tbaa !70, !range !43, !noundef !44
  %48 = trunc i8 %47 to i1
  br i1 %48, label %49, label %61

49:                                               ; preds = %32
  %50 = load i32, ptr %19, align 4, !tbaa !42
  %51 = icmp ne i32 %50, 0
  br i1 %51, label %52, label %61

52:                                               ; preds = %49
  %53 = load ptr, ptr %8, align 8, !tbaa !74
  %54 = load ptr, ptr %16, align 8, !tbaa !51
  %55 = call noundef i32 @_ZNK18b3QuantizedBvhNode9getPartIdEv(ptr noundef nonnull align 16 dereferenceable(16) %54)
  %56 = load ptr, ptr %16, align 8, !tbaa !51
  %57 = call noundef i32 @_ZNK18b3QuantizedBvhNode16getTriangleIndexEv(ptr noundef nonnull align 16 dereferenceable(16) %56)
  %58 = load ptr, ptr %53, align 8, !tbaa !9
  %59 = getelementptr inbounds ptr, ptr %58, i64 2
  %60 = load ptr, ptr %59, align 8
  call void %60(ptr noundef nonnull align 8 dereferenceable(8) %53, i32 noundef %55, i32 noundef %57)
  br label %61

61:                                               ; preds = %52, %49, %32
  %62 = load i32, ptr %19, align 4, !tbaa !42
  %63 = icmp ne i32 %62, 0
  br i1 %63, label %67, label %64

64:                                               ; preds = %61
  %65 = load i8, ptr %18, align 1, !tbaa !70, !range !43, !noundef !44
  %66 = trunc i8 %65 to i1
  br i1 %66, label %67, label %72

67:                                               ; preds = %64, %61
  %68 = load ptr, ptr %16, align 8, !tbaa !51
  %69 = getelementptr inbounds nuw %struct.b3QuantizedBvhNode, ptr %68, i32 1
  store ptr %69, ptr %16, align 8, !tbaa !51
  %70 = load i32, ptr %13, align 4, !tbaa !42
  %71 = add nsw i32 %70, 1
  store i32 %71, ptr %13, align 4, !tbaa !42
  br label %82

72:                                               ; preds = %64
  %73 = load ptr, ptr %16, align 8, !tbaa !51
  %74 = call noundef i32 @_ZNK18b3QuantizedBvhNode14getEscapeIndexEv(ptr noundef nonnull align 16 dereferenceable(16) %73)
  store i32 %74, ptr %17, align 4, !tbaa !42
  %75 = load i32, ptr %17, align 4, !tbaa !42
  %76 = load ptr, ptr %16, align 8, !tbaa !51
  %77 = sext i32 %75 to i64
  %78 = getelementptr inbounds %struct.b3QuantizedBvhNode, ptr %76, i64 %77
  store ptr %78, ptr %16, align 8, !tbaa !51
  %79 = load i32, ptr %17, align 4, !tbaa !42
  %80 = load i32, ptr %13, align 4, !tbaa !42
  %81 = add nsw i32 %80, %79
  store i32 %81, ptr %13, align 4, !tbaa !42
  br label %82

82:                                               ; preds = %72, %67
  br label %28, !llvm.loop !78

83:                                               ; preds = %28
  %84 = load i32, ptr @_ZL17b3s_maxIterations, align 4, !tbaa !42
  %85 = load i32, ptr %14, align 4, !tbaa !42
  %86 = icmp slt i32 %84, %85
  br i1 %86, label %87, label %89

87:                                               ; preds = %83
  %88 = load i32, ptr %14, align 4, !tbaa !42
  store i32 %88, ptr @_ZL17b3s_maxIterations, align 4, !tbaa !42
  br label %89

89:                                               ; preds = %87, %83
  call void @llvm.lifetime.end.p0(i64 4, ptr %19) #14
  call void @llvm.lifetime.end.p0(i64 1, ptr %18) #14
  call void @llvm.lifetime.end.p0(i64 4, ptr %17) #14
  call void @llvm.lifetime.end.p0(i64 8, ptr %16) #14
  call void @llvm.lifetime.end.p0(i64 4, ptr %15) #14
  call void @llvm.lifetime.end.p0(i64 4, ptr %14) #14
  call void @llvm.lifetime.end.p0(i64 4, ptr %13) #14
  ret void
}