; Function Attrs: mustprogress uwtable
define dso_local void @_ZNK14b3QuantizedBvh26walkStacklessQuantizedTreeEP21b3NodeOverlapCallbackPtS2_ii(ptr noundef nonnull readonly align 16 captures(none) dereferenceable(252) %0, ptr noundef %1, ptr noundef readonly captures(none) %2, ptr noundef readonly captures(none) %3, i32 noundef %4, i32 noundef %5) local_unnamed_addr #2 align 2 {
  %7 = icmp slt i32 %4, %5
  br i1 %7, label %.lr.ph, label %._crit_edge

.lr.ph:                                           ; preds = %6
  %8 = getelementptr inbounds nuw i8, ptr %0, i64 192
  %9 = load ptr, ptr %8, align 16, !tbaa !30
  %10 = sext i32 %4 to i64
  %11 = getelementptr inbounds %struct.b3QuantizedBvhNode, ptr %9, i64 %10
  %12 = getelementptr inbounds nuw i8, ptr %2, i64 4
  %13 = getelementptr inbounds nuw i8, ptr %3, i64 4
  %14 = getelementptr inbounds nuw i8, ptr %2, i64 2
  %15 = getelementptr inbounds nuw i8, ptr %3, i64 2
  br label %16

16:                                               ; preds = %.lr.ph, %58
  %.035 = phi i32 [ %4, %.lr.ph ], [ %.1, %58 ]
  %.02934 = phi i32 [ 0, %.lr.ph ], [ %17, %58 ]
  %.03033 = phi ptr [ %11, %.lr.ph ], [ %.131, %58 ]
  %17 = add nuw nsw i32 %.02934, 1
  %18 = getelementptr inbounds nuw i8, ptr %.03033, i64 6
  %19 = load i16, ptr %2, align 2, !tbaa !46
  %20 = load i16, ptr %18, align 2, !tbaa !46
  %21 = icmp ule i16 %19, %20
  %22 = load i16, ptr %3, align 2, !tbaa !46
  %23 = load i16, ptr %.03033, align 2, !tbaa !46
  %24 = icmp uge i16 %22, %23
  %.not23.not32.i = and i1 %21, %24
  %25 = load i16, ptr %12, align 2, !tbaa !46
  %26 = getelementptr inbounds nuw i8, ptr %.03033, i64 10
  %27 = load i16, ptr %26, align 2, !tbaa !46
  %28 = icmp ule i16 %25, %27
  %.not21.not29.i = and i1 %.not23.not32.i, %28
  %29 = load i16, ptr %13, align 2, !tbaa !46
  %30 = getelementptr inbounds nuw i8, ptr %.03033, i64 4
  %31 = load i16, ptr %30, align 2, !tbaa !46
  %32 = icmp uge i16 %29, %31
  %.not18.not27.i = and i1 %.not21.not29.i, %32
  %33 = load i16, ptr %14, align 2, !tbaa !46
  %34 = getelementptr inbounds nuw i8, ptr %.03033, i64 8
  %35 = load i16, ptr %34, align 2, !tbaa !46
  %36 = icmp ule i16 %33, %35
  %.not16.not25.i = and i1 %.not18.not27.i, %36
  %37 = load i16, ptr %15, align 2, !tbaa !46
  %38 = getelementptr inbounds nuw i8, ptr %.03033, i64 2
  %39 = load i16, ptr %38, align 2, !tbaa !46
  %40 = icmp uge i16 %37, %39
  %.not13.not.i = and i1 %.not16.not25.i, %40
  %41 = getelementptr inbounds nuw i8, ptr %.03033, i64 12
  %42 = load i32, ptr %41, align 4, !tbaa !50
  %43 = icmp sgt i32 %42, -1
  %or.cond = and i1 %43, %.not13.not.i
  br i1 %or.cond, label %.thread, label %49

.thread:                                          ; preds = %16
  %44 = lshr i32 %42, 21
  %45 = and i32 %42, 2097151
  %46 = load ptr, ptr %1, align 8, !tbaa !4
  %47 = getelementptr inbounds nuw i8, ptr %46, i64 16
  %48 = load ptr, ptr %47, align 8
  tail call void %48(ptr noundef nonnull align 8 dereferenceable(8) %1, i32 noundef %44, i32 noundef %45)
  br label %50

49:                                               ; preds = %16
  %brmerge = or i1 %.not13.not.i, %43
  br i1 %brmerge, label %50, label %53

50:                                               ; preds = %.thread, %49
  %51 = getelementptr inbounds nuw i8, ptr %.03033, i64 16
  %52 = add nsw i32 %.035, 1
  br label %58

53:                                               ; preds = %49
  %54 = sub nsw i32 0, %42
  %55 = zext nneg i32 %54 to i64
  %56 = getelementptr inbounds nuw %struct.b3QuantizedBvhNode, ptr %.03033, i64 %55
  %57 = sub nsw i32 %.035, %42
  br label %58

58:                                               ; preds = %53, %50
  %.131 = phi ptr [ %51, %50 ], [ %56, %53 ]
  %.1 = phi i32 [ %52, %50 ], [ %57, %53 ]
  %59 = icmp slt i32 %.1, %5
  br i1 %59, label %16, label %._crit_edge, !llvm.loop !67

._crit_edge:                                      ; preds = %58, %6
  %.029.lcssa = phi i32 [ 0, %6 ], [ %17, %58 ]
  %60 = load i32, ptr @_ZL17b3s_maxIterations, align 4, !tbaa !54
  %61 = icmp slt i32 %60, %.029.lcssa
  br i1 %61, label %62, label %63

62:                                               ; preds = %._crit_edge
  store i32 %.029.lcssa, ptr @_ZL17b3s_maxIterations, align 4, !tbaa !54
  br label %63

63:                                               ; preds = %62, %._crit_edge
  ret void
}